target datalayout = "e-m:e-p270:32:32-p271:32:32-p272:64:64-i64:64-i128:128-f80:128-n8:16:32:64-S128"
target triple = "x86_64-pc-linux-gnu"

%struct.GetByteContext = type { ptr, ptr, ptr }

; Function Attrs: alwaysinline nounwind willreturn memory(none) uwtable
define internal zeroext i16 @av_bswap16(i16 noundef zeroext %0) #5 {
  %2 = alloca i16, align 2
  store i16 %0, ptr %2, align 2, !tbaa !83
  %3 = load i16, ptr %2, align 2, !tbaa !83
  %4 = zext i16 %3 to i32
  %5 = ashr i32 %4, 8
  %6 = load i16, ptr %2, align 2, !tbaa !83
  %7 = zext i16 %6 to i32
  %8 = shl i32 %7, 8
  %9 = or i32 %5, %8
  %10 = trunc i32 %9 to i16
  store i16 %10, ptr %2, align 2, !tbaa !83
  %11 = load i16, ptr %2, align 2, !tbaa !83
  ret i16 %11
}

; Function Attrs: alwaysinline nounwind uwtable
define internal i32 @bytestream_get_byte(ptr noundef %0) #4 {
  %2 = alloca ptr, align 8
  store ptr %0, ptr %2, align 8, !tbaa !125
  %3 = load ptr, ptr %2, align 8, !tbaa !125
  %4 = load ptr, ptr %3, align 8, !tbaa !72
  %5 = getelementptr inbounds i8, ptr %4, i64 1
  store ptr %5, ptr %3, align 8, !tbaa !72
  %6 = load ptr, ptr %2, align 8, !tbaa !125
  %7 = load ptr, ptr %6, align 8, !tbaa !72
  %8 = getelementptr inbounds i8, ptr %7, i64 -1
  %9 = getelementptr inbounds i8, ptr %8, i64 0
  %10 = load i8, ptr %9, align 1, !tbaa !42
  %11 = zext i8 %10 to i32
  ret i32 %11
}

; Function Attrs: alwaysinline nounwind uwtable
define internal i32 @bytestream_get_be16(ptr noundef %0) #4 {
  %2 = alloca ptr, align 8
  store ptr %0, ptr %2, align 8, !tbaa !125
  %3 = load ptr, ptr %2, align 8, !tbaa !125
  %4 = load ptr, ptr %3, align 8, !tbaa !72
  %5 = getelementptr inbounds i8, ptr %4, i64 2
  store ptr %5, ptr %3, align 8, !tbaa !72
  %6 = load ptr, ptr %2, align 8, !tbaa !125
  %7 = load ptr, ptr %6, align 8, !tbaa !72
  %8 = getelementptr inbounds i8, ptr %7, i64 -2
  %9 = load i16, ptr %8, align 1, !tbaa !42
  %10 = call zeroext i16 @av_bswap16(i16 noundef zeroext %9) #11
  %11 = zext i16 %10 to i32
  ret i32 %11
}

; Function Attrs: alwaysinline nounwind uwtable
define internal i32 @bytestream2_get_byteu(ptr noundef %0) #4 {
  %2 = alloca ptr, align 8
  store ptr %0, ptr %2, align 8, !tbaa !37
  %3 = load ptr, ptr %2, align 8, !tbaa !37
  %4 = getelementptr inbounds nuw %struct.GetByteContext, ptr %3, i32 0, i32 0
  %5 = call i32 @bytestream_get_byte(ptr noundef %4)
  ret i32 %5
}

; Function Attrs: alwaysinline nounwind uwtable
define internal i32 @bytestream2_get_be16u(ptr noundef %0) #4 {
  %2 = alloca ptr, align 8
  store ptr %0, ptr %2, align 8, !tbaa !37
  %3 = load ptr, ptr %2, align 8, !tbaa !37
  %4 = getelementptr inbounds nuw %struct.GetByteContext, ptr %3, i32 0, i32 0
  %5 = call i32 @bytestream_get_be16(ptr noundef %4)
  ret i32 %5
}

; Function Attrs: alwaysinline nounwind uwtable
define internal i32 @bytestream2_get_byte(ptr noundef %0) #4 {
  %2 = alloca i32, align 4
  %3 = alloca ptr, align 8
  store ptr %0, ptr %3, align 8, !tbaa !37
  %4 = load ptr, ptr %3, align 8, !tbaa !37
  %5 = getelementptr inbounds nuw %struct.GetByteContext, ptr %4, i32 0, i32 1
  %6 = load ptr, ptr %5, align 8, !tbaa !82
  %7 = load ptr, ptr %3, align 8, !tbaa !37
  %8 = getelementptr inbounds nuw %struct.GetByteContext, ptr %7, i32 0, i32 0
  %9 = load ptr, ptr %8, align 8, !tbaa !61
  %10 = ptrtoint ptr %6 to i64
  %11 = ptrtoint ptr %9 to i64
  %12 = sub i64 %10, %11
  %13 = icmp slt i64 %12, 1
  br i1 %13, label %14, label %20

14:                                               ; preds = %1
  %15 = load ptr, ptr %3, align 8, !tbaa !37
  %16 = getelementptr inbounds nuw %struct.GetByteContext, ptr %15, i32 0, i32 1
  %17 = load ptr, ptr %16, align 8, !tbaa !82
  %18 = load ptr, ptr %3, align 8, !tbaa !37
  %19 = getelementptr inbounds nuw %struct.GetByteContext, ptr %18, i32 0, i32 0
  store ptr %17, ptr %19, align 8, !tbaa !61
  store i32 0, ptr %2, align 4
  br label %23

20:                                               ; preds = %1
  %21 = load ptr, ptr %3, align 8, !tbaa !37
  %22 = call i32 @bytestream2_get_byteu(ptr noundef %21)
  store i32 %22, ptr %2, align 4
  br label %23

23:                                               ; preds = %20, %14
  %24 = load i32, ptr %2, align 4
  ret i32 %24
}

; Function Attrs: alwaysinline nounwind uwtable
define internal i32 @bytestream2_get_be16(ptr noundef %0) #4 {
  %2 = alloca i32, align 4
  %3 = alloca ptr, align 8
  store ptr %0, ptr %3, align 8, !tbaa !37
  %4 = load ptr, ptr %3, align 8, !tbaa !37
  %5 = getelementptr inbounds nuw %struct.GetByteContext, ptr %4, i32 0, i32 1
  %6 = load ptr, ptr %5, align 8, !tbaa !82
  %7 = load ptr, ptr %3, align 8, !tbaa !37
  %8 = getelementptr inbounds nuw %struct.GetByteContext, ptr %7, i32 0, i32 0
  %9 = load ptr, ptr %8, align 8, !tbaa !61
  %10 = ptrtoint ptr %6 to i64
  %11 = ptrtoint ptr %9 to i64
  %12 = sub i64 %10, %11
  %13 = icmp slt i64 %12, 2
  br i1 %13, label %14, label %20

14:                                               ; preds = %1
  %15 = load ptr, ptr %3, align 8, !tbaa !37
  %16 = getelementptr inbounds nuw %struct.GetByteContext, ptr %15, i32 0, i32 1
  %17 = load ptr, ptr %16, align 8, !tbaa !82
  %18 = load ptr, ptr %3, align 8, !tbaa !37
  %19 = getelementptr inbounds nuw %struct.GetByteContext, ptr %18, i32 0, i32 0
  store ptr %17, ptr %19, align 8, !tbaa !61
  store i32 0, ptr %2, align 4
  br label %23

20:                                               ; preds = %1
  %21 = load ptr, ptr %3, align 8, !tbaa !37
  %22 = call i32 @bytestream2_get_be16u(ptr noundef %21)
  store i32 %22, ptr %2, align 4
  br label %23

23:                                               ; preds = %20, %14
  %24 = load i32, ptr %2, align 4
  ret i32 %24
}

; Function Attrs: alwaysinline nounwind uwtable
define internal i32 @bytestream2_get_bytes_left(ptr noundef %0) #4 {
  %2 = alloca ptr, align 8
  store ptr %0, ptr %2, align 8, !tbaa !37
  %3 = load ptr, ptr %2, align 8, !tbaa !37
  %4 = getelementptr inbounds nuw %struct.GetByteContext, ptr %3, i32 0, i32 1
  %5 = load ptr, ptr %4, align 8, !tbaa !82
  %6 = load ptr, ptr %2, align 8, !tbaa !37
  %7 = getelementptr inbounds nuw %struct.GetByteContext, ptr %6, i32 0, i32 0
  %8 = load ptr, ptr %7, align 8, !tbaa !61
  %9 = ptrtoint ptr %5 to i64
  %10 = ptrtoint ptr %8 to i64
  %11 = sub i64 %9, %10
  %12 = trunc i64 %11 to i32
  ret i32 %12
}

; Function Attrs: nounwind uwtable
define internal i32 @lzss_decompress(ptr noundef %0, ptr noundef %1, ptr noundef %2, i32 noundef %3, i32 noundef %4, i32 noundef %5) #1 {
  %7 = alloca i32, align 4
  %8 = alloca ptr, align 8
  %9 = alloca ptr, align 8
  %10 = alloca ptr, align 8
  %11 = alloca i32, align 4
  %12 = alloca i32, align 4
  %13 = alloca i32, align 4
  %14 = alloca i32, align 4
  %15 = alloca i16, align 2
  %16 = alloca i16, align 2
  %17 = alloca i32, align 4
  %18 = alloca i32, align 4
  %19 = alloca i32, align 4
  %20 = alloca i32, align 4
  %21 = alloca i32, align 4
  store ptr %0, ptr %8, align 8, !tbaa !4
  store ptr %1, ptr %9, align 8, !tbaa !37
  store ptr %2, ptr %10, align 8, !tbaa !72
  store i32 %3, ptr %11, align 4, !tbaa !49
  store i32 %4, ptr %12, align 4, !tbaa !49
  store i32 %5, ptr %13, align 4, !tbaa !49
  call void @llvm.lifetime.start.p0(i64 4, ptr %14) #10
  store i32 0, ptr %14, align 4, !tbaa !49
  br label %22

22:                                               ; preds = %163, %6
  %23 = load ptr, ptr %9, align 8, !tbaa !37
  %24 = call i32 @bytestream2_get_bytes_left(ptr noundef %23)
  %25 = icmp sgt i32 %24, 0
  br i1 %25, label %26, label %30

26:                                               ; preds = %22
  %27 = load i32, ptr %14, align 4, !tbaa !49
  %28 = load i32, ptr %11, align 4, !tbaa !49
  %29 = icmp slt i32 %27, %28
  br label %30

30:                                               ; preds = %26, %22
  %31 = phi i1 [ false, %22 ], [ %29, %26 ]
  br i1 %31, label %32, label %164

32:                                               ; preds = %30
  call void @llvm.lifetime.start.p0(i64 2, ptr %15) #10
  call void @llvm.lifetime.start.p0(i64 2, ptr %16) #10
  %33 = load ptr, ptr %9, align 8, !tbaa !37
  %34 = call i32 @bytestream2_get_be16(ptr noundef %33)
  %35 = trunc i32 %34 to i16
  store i16 %35, ptr %16, align 2, !tbaa !83
  call void @llvm.lifetime.start.p0(i64 4, ptr %17) #10
  call void @llvm.lifetime.start.p0(i64 4, ptr %18) #10
  call void @llvm.lifetime.start.p0(i64 4, ptr %19) #10
  store i32 0, ptr %19, align 4, !tbaa !49
  br label %36

36:                                               ; preds = %155, %32
  %37 = load i32, ptr %19, align 4, !tbaa !49
  %38 = icmp slt i32 %37, 16
  br i1 %38, label %40, label %39

39:                                               ; preds = %36
  store i32 4, ptr %20, align 4
  br label %158

40:                                               ; preds = %36
  %41 = load i16, ptr %16, align 2, !tbaa !83
  %42 = zext i16 %41 to i32
  %43 = ashr i32 %42, 15
  switch i32 %43, label %150 [
    i32 0, label %44
    i32 1, label %67
  ]

44:                                               ; preds = %40
  %45 = load i32, ptr %14, align 4, !tbaa !49
  %46 = add nsw i32 %45, 2
  %47 = load i32, ptr %11, align 4, !tbaa !49
  %48 = icmp slt i32 %46, %47
  br i1 %48, label %49, label %66

49:                                               ; preds = %44
  %50 = load ptr, ptr %9, align 8, !tbaa !37
  %51 = call i32 @bytestream2_get_byte(ptr noundef %50)
  %52 = trunc i32 %51 to i8
  %53 = load ptr, ptr %10, align 8, !tbaa !72
  %54 = load i32, ptr %14, align 4, !tbaa !49
  %55 = add nsw i32 %54, 1
  store i32 %55, ptr %14, align 4, !tbaa !49
  %56 = sext i32 %54 to i64
  %57 = getelementptr inbounds i8, ptr %53, i64 %56
  store i8 %52, ptr %57, align 1, !tbaa !42
  %58 = load ptr, ptr %9, align 8, !tbaa !37
  %59 = call i32 @bytestream2_get_byte(ptr noundef %58)
  %60 = trunc i32 %59 to i8
  %61 = load ptr, ptr %10, align 8, !tbaa !72
  %62 = load i32, ptr %14, align 4, !tbaa !49
  %63 = add nsw i32 %62, 1
  store i32 %63, ptr %14, align 4, !tbaa !49
  %64 = sext i32 %62 to i64
  %65 = getelementptr inbounds i8, ptr %61, i64 %64
  store i8 %60, ptr %65, align 1, !tbaa !42
  br label %66

66:                                               ; preds = %49, %44
  br label %150

67:                                               ; preds = %40
  %68 = load ptr, ptr %9, align 8, !tbaa !37
  %69 = call i32 @bytestream2_get_be16(ptr noundef %68)
  %70 = trunc i32 %69 to i16
  store i16 %70, ptr %15, align 2, !tbaa !83
  %71 = load i16, ptr %15, align 2, !tbaa !83
  %72 = zext i16 %71 to i32
  %73 = load i32, ptr %12, align 4, !tbaa !49
  %74 = ashr i32 %72, %73
  store i32 %74, ptr %17, align 4, !tbaa !49
  %75 = load i16, ptr %15, align 2, !tbaa !83
  %76 = zext i16 %75 to i32
  %77 = load i32, ptr %12, align 4, !tbaa !49
  %78 = shl i32 1, %77
  %79 = sub nsw i32 %78, 1
  %80 = and i32 %76, %79
  store i32 %80, ptr %18, align 4, !tbaa !49
  %81 = load i16, ptr %15, align 2, !tbaa !83
  %82 = zext i16 %81 to i32
  %83 = icmp eq i32 %82, 0
  br i1 %83, label %84, label %106

84:                                               ; preds = %67
  br label %85

85:                                               ; preds = %95, %84
  %86 = load ptr, ptr %9, align 8, !tbaa !37
  %87 = call i32 @bytestream2_get_bytes_left(ptr noundef %86)
  %88 = icmp sgt i32 %87, 0
  br i1 %88, label %89, label %93

89:                                               ; preds = %85
  %90 = load i32, ptr %14, align 4, !tbaa !49
  %91 = load i32, ptr %11, align 4, !tbaa !49
  %92 = icmp slt i32 %90, %91
  br label %93

93:                                               ; preds = %89, %85
  %94 = phi i1 [ false, %85 ], [ %92, %89 ]
  br i1 %94, label %95, label %104

95:                                               ; preds = %93
  %96 = load ptr, ptr %9, align 8, !tbaa !37
  %97 = call i32 @bytestream2_get_byte(ptr noundef %96)
  %98 = trunc i32 %97 to i8
  %99 = load ptr, ptr %10, align 8, !tbaa !72
  %100 = load i32, ptr %14, align 4, !tbaa !49
  %101 = add nsw i32 %100, 1
  store i32 %101, ptr %14, align 4, !tbaa !49
  %102 = sext i32 %100 to i64
  %103 = getelementptr inbounds i8, ptr %99, i64 %102
  store i8 %98, ptr %103, align 1, !tbaa !42
  br label %85, !llvm.loop !85

104:                                              ; preds = %93
  %105 = load i32, ptr %14, align 4, !tbaa !49
  store i32 %105, ptr %7, align 4
  store i32 1, ptr %20, align 4
  br label %158

106:                                              ; preds = %67
  %107 = load i32, ptr %13, align 4, !tbaa !49
  %108 = load i32, ptr %17, align 4, !tbaa !49
  %109 = add nsw i32 %108, %107
  store i32 %109, ptr %17, align 4, !tbaa !49
  %110 = load i32, ptr %18, align 4, !tbaa !49
  %111 = icmp sle i32 %110, 0
  br i1 %111, label %112, label %113

112:                                              ; preds = %106
  store i32 1, ptr %18, align 4, !tbaa !49
  br label %113

113:                                              ; preds = %112, %106
  %114 = load i32, ptr %14, align 4, !tbaa !49
  %115 = load i32, ptr %18, align 4, !tbaa !49
  %116 = icmp slt i32 %114, %115
  br i1 %116, label %124, label %117

117:                                              ; preds = %113
  %118 = load i32, ptr %14, align 4, !tbaa !49
  %119 = load i32, ptr %17, align 4, !tbaa !49
  %120 = mul nsw i32 %119, 2
  %121 = add nsw i32 %118, %120
  %122 = load i32, ptr %11, align 4, !tbaa !49
  %123 = icmp sgt i32 %121, %122
  br i1 %123, label %124, label %125

124:                                              ; preds = %117, %113
  store i32 -1094995529, ptr %7, align 4
  store i32 1, ptr %20, align 4
  br label %158

125:                                              ; preds = %117
  call void @llvm.lifetime.start.p0(i64 4, ptr %21) #10
  store i32 0, ptr %21, align 4, !tbaa !49
  br label %126

126:                                              ; preds = %146, %125
  %127 = load i32, ptr %21, align 4, !tbaa !49
  %128 = load i32, ptr %17, align 4, !tbaa !49
  %129 = mul nsw i32 %128, 2
  %130 = icmp slt i32 %127, %129
  br i1 %130, label %132, label %131

131:                                              ; preds = %126
  store i32 10, ptr %20, align 4
  call void @llvm.lifetime.end.p0(i64 4, ptr %21) #10
  br label %149

132:                                              ; preds = %126
  %133 = load ptr, ptr %10, align 8, !tbaa !72
  %134 = load i32, ptr %14, align 4, !tbaa !49
  %135 = load i32, ptr %18, align 4, !tbaa !49
  %136 = sub nsw i32 %134, %135
  %137 = sext i32 %136 to i64
  %138 = getelementptr inbounds i8, ptr %133, i64 %137
  %139 = load i8, ptr %138, align 1, !tbaa !42
  %140 = load ptr, ptr %10, align 8, !tbaa !72
  %141 = load i32, ptr %14, align 4, !tbaa !49
  %142 = sext i32 %141 to i64
  %143 = getelementptr inbounds i8, ptr %140, i64 %142
  store i8 %139, ptr %143, align 1, !tbaa !42
  %144 = load i32, ptr %14, align 4, !tbaa !49
  %145 = add nsw i32 %144, 1
  store i32 %145, ptr %14, align 4, !tbaa !49
  br label %146

146:                                              ; preds = %132
  %147 = load i32, ptr %21, align 4, !tbaa !49
  %148 = add nsw i32 %147, 1
  store i32 %148, ptr %21, align 4, !tbaa !49
  br label %126, !llvm.loop !86

149:                                              ; preds = %131
  br label %150

150:                                              ; preds = %40, %149, %66
  %151 = load i16, ptr %16, align 2, !tbaa !83
  %152 = zext i16 %151 to i32
  %153 = shl i32 %152, 1
  %154 = trunc i32 %153 to i16
  store i16 %154, ptr %16, align 2, !tbaa !83
  br label %155

155:                                              ; preds = %150
  %156 = load i32, ptr %19, align 4, !tbaa !49
  %157 = add nsw i32 %156, 1
  store i32 %157, ptr %19, align 4, !tbaa !49
  br label %36, !llvm.loop !87

158:                                              ; preds = %124, %104, %39
  call void @llvm.lifetime.end.p0(i64 4, ptr %19) #10
  %159 = load i32, ptr %20, align 4
  switch i32 %159, label %161 [
    i32 4, label %160
  ]

160:                                              ; preds = %158
  store i32 0, ptr %20, align 4
  br label %161

161:                                              ; preds = %160, %158
  call void @llvm.lifetime.end.p0(i64 4, ptr %18) #10
  call void @llvm.lifetime.end.p0(i64 4, ptr %17) #10
  call void @llvm.lifetime.end.p0(i64 2, ptr %16) #10
  call void @llvm.lifetime.end.p0(i64 2, ptr %15) #10
  %162 = load i32, ptr %20, align 4
  switch i32 %162, label %165 [
    i32 0, label %163
  ]

163:                                              ; preds = %161
  br label %22, !llvm.loop !88

164:                                              ; preds = %30
  store i32 -1094995529, ptr %7, align 4
  store i32 1, ptr %20, align 4
  br label %165

165:                                              ; preds = %164, %161
  call void @llvm.lifetime.end.p0(i64 4, ptr %14) #10
  %166 = load i32, ptr %7, align 4
  ret i32 %166
}