; Function Attrs: nofree norecurse nosync nounwind memory(read, argmem: readwrite, inaccessiblemem: none) uwtable
define internal fastcc i32 @lzss_decompress(ptr noundef captures(none) %0, ptr noundef captures(none) %1, i32 noundef %2, i32 noundef %3, i32 noundef %4) unnamed_addr #6 {
  %6 = getelementptr inbounds nuw i8, ptr %0, i64 8
  %notmask = shl nsw i32 -1, %3
  %7 = xor i32 %notmask, -1
  %8 = sext i32 %2 to i64
  %9 = load ptr, ptr %6, align 8, !tbaa !43
  %10 = load ptr, ptr %0, align 8, !tbaa !44
  %11 = ptrtoint ptr %9 to i64
  %12 = ptrtoint ptr %10 to i64
  %13 = sub i64 %11, %12
  %14 = trunc i64 %13 to i32
  %15 = icmp sgt i32 %14, 0
  %16 = icmp sgt i32 %2, 0
  %17 = and i1 %15, %16
  br i1 %17, label %.lr.ph63, label %.thread

.lr.ph63:                                         ; preds = %5, %.loopexit4
  %18 = phi i64 [ %121, %.loopexit4 ], [ %13, %5 ]
  %19 = phi ptr [ %118, %.loopexit4 ], [ %10, %5 ]
  %20 = phi ptr [ %117, %.loopexit4 ], [ %9, %5 ]
  %.05462 = phi i32 [ %.3, %.loopexit4 ], [ 0, %5 ]
  %21 = icmp slt i64 %18, 2
  br i1 %21, label %22, label %23

22:                                               ; preds = %.lr.ph63
  store ptr %20, ptr %0, align 8, !tbaa !44
  br label %bytestream2_get_be16.exit64.preheader

23:                                               ; preds = %.lr.ph63
  %24 = getelementptr inbounds nuw i8, ptr %19, i64 2
  store ptr %24, ptr %0, align 8, !tbaa !45
  %25 = load i16, ptr %19, align 1, !tbaa !31
  %26 = tail call i16 @llvm.bswap.i16(i16 %25)
  %27 = zext i16 %26 to i32
  br label %bytestream2_get_be16.exit64.preheader

bytestream2_get_be16.exit64.preheader:            ; preds = %22, %23
  %.052.in14.ph = phi i32 [ %27, %23 ], [ 0, %22 ]
  br label %bytestream2_get_be16.exit64

bytestream2_get_be16.exit64:                      ; preds = %bytestream2_get_be16.exit64.preheader, %.loopexit
  %.05115 = phi i32 [ %115, %.loopexit ], [ 0, %bytestream2_get_be16.exit64.preheader ]
  %.052.in14 = phi i32 [ %114, %.loopexit ], [ %.052.in14.ph, %bytestream2_get_be16.exit64.preheader ]
  %.15513 = phi i32 [ %.3, %.loopexit ], [ %.05462, %bytestream2_get_be16.exit64.preheader ]
  %28 = and i32 %.052.in14, 32768
  %trunc.not = icmp eq i32 %28, 0
  br i1 %trunc.not, label %29, label %56

29:                                               ; preds = %bytestream2_get_be16.exit64
  %30 = add nsw i32 %.15513, 2
  %31 = icmp slt i32 %30, %2
  br i1 %31, label %32, label %.loopexit

32:                                               ; preds = %29
  %33 = load ptr, ptr %6, align 8, !tbaa !43
  %34 = load ptr, ptr %0, align 8, !tbaa !44
  %35 = ptrtoint ptr %33 to i64
  %36 = ptrtoint ptr %34 to i64
  %37 = sub i64 %35, %36
  %38 = icmp slt i64 %37, 1
  br i1 %38, label %39, label %40

39:                                               ; preds = %32
  store ptr %33, ptr %0, align 8, !tbaa !44
  br label %bytestream2_get_byte.exit61

40:                                               ; preds = %32
  %41 = getelementptr inbounds nuw i8, ptr %34, i64 1
  store ptr %41, ptr %0, align 8, !tbaa !45
  %42 = load i8, ptr %34, align 1, !tbaa !31
  br label %bytestream2_get_byte.exit61

bytestream2_get_byte.exit61:                      ; preds = %39, %40
  %.0.i60 = phi i8 [ 0, %39 ], [ %42, %40 ]
  %43 = sext i32 %.15513 to i64
  %44 = getelementptr inbounds i8, ptr %1, i64 %43
  store i8 %.0.i60, ptr %44, align 1, !tbaa !31
  %45 = load ptr, ptr %6, align 8, !tbaa !43
  %46 = load ptr, ptr %0, align 8, !tbaa !44
  %47 = ptrtoint ptr %45 to i64
  %48 = ptrtoint ptr %46 to i64
  %49 = sub i64 %47, %48
  %50 = icmp slt i64 %49, 1
  br i1 %50, label %51, label %52

51:                                               ; preds = %bytestream2_get_byte.exit61
  store ptr %45, ptr %0, align 8, !tbaa !44
  br label %bytestream2_get_byte.exit59

52:                                               ; preds = %bytestream2_get_byte.exit61
  %53 = getelementptr inbounds nuw i8, ptr %46, i64 1
  store ptr %53, ptr %0, align 8, !tbaa !45
  %54 = load i8, ptr %46, align 1, !tbaa !31
  br label %bytestream2_get_byte.exit59

bytestream2_get_byte.exit59:                      ; preds = %51, %52
  %.0.i58 = phi i8 [ 0, %51 ], [ %54, %52 ]
  %55 = getelementptr i8, ptr %44, i64 1
  store i8 %.0.i58, ptr %55, align 1, !tbaa !31
  br label %.loopexit

56:                                               ; preds = %bytestream2_get_be16.exit64
  %57 = load ptr, ptr %6, align 8, !tbaa !43
  %58 = load ptr, ptr %0, align 8, !tbaa !44
  %59 = ptrtoint ptr %57 to i64
  %60 = ptrtoint ptr %58 to i64
  %61 = sub i64 %59, %60
  %62 = icmp slt i64 %61, 2
  br i1 %62, label %bytestream2_get_be16.exit.thread, label %bytestream2_get_be16.exit

bytestream2_get_be16.exit.thread:                 ; preds = %56
  store ptr %57, ptr %0, align 8, !tbaa !44
  br label %.preheader3

bytestream2_get_be16.exit:                        ; preds = %56
  %63 = getelementptr inbounds nuw i8, ptr %58, i64 2
  store ptr %63, ptr %0, align 8, !tbaa !45
  %64 = load i16, ptr %58, align 1, !tbaa !31
  %65 = tail call i16 @llvm.bswap.i16(i16 %64)
  %66 = zext i16 %65 to i32
  %67 = icmp eq i16 %64, 0
  br i1 %67, label %.preheader3.loopexit, label %95

.preheader3.loopexit:                             ; preds = %bytestream2_get_be16.exit
  %68 = getelementptr inbounds nuw i8, ptr %58, i64 2
  br label %.preheader3

.preheader3:                                      ; preds = %.preheader3.loopexit, %bytestream2_get_be16.exit.thread
  %69 = phi ptr [ %57, %bytestream2_get_be16.exit.thread ], [ %68, %.preheader3.loopexit ]
  %70 = ptrtoint ptr %69 to i64
  %71 = sub i64 %59, %70
  %72 = trunc i64 %71 to i32
  %73 = icmp sgt i32 %72, 0
  %74 = icmp slt i32 %.15513, %2
  %75 = select i1 %73, i1 %74, i1 false
  br i1 %75, label %.lr.ph17.preheader, label %.thread

.lr.ph17.preheader:                               ; preds = %.preheader3
  %76 = sext i32 %.15513 to i64
  br label %.lr.ph17

.lr.ph17:                                         ; preds = %.lr.ph17.preheader, %bytestream2_get_byte.exit
  %indvars.iv30 = phi i64 [ %76, %.lr.ph17.preheader ], [ %indvars.iv.next31, %bytestream2_get_byte.exit ]
  %77 = phi i64 [ %71, %.lr.ph17.preheader ], [ %90, %bytestream2_get_byte.exit ]
  %78 = phi ptr [ %69, %.lr.ph17.preheader ], [ %87, %bytestream2_get_byte.exit ]
  %79 = phi ptr [ %57, %.lr.ph17.preheader ], [ %86, %bytestream2_get_byte.exit ]
  %80 = icmp slt i64 %77, 1
  br i1 %80, label %81, label %82

81:                                               ; preds = %.lr.ph17
  store ptr %79, ptr %0, align 8, !tbaa !44
  br label %bytestream2_get_byte.exit

82:                                               ; preds = %.lr.ph17
  %83 = getelementptr inbounds nuw i8, ptr %78, i64 1
  store ptr %83, ptr %0, align 8, !tbaa !45
  %84 = load i8, ptr %78, align 1, !tbaa !31
  br label %bytestream2_get_byte.exit

bytestream2_get_byte.exit:                        ; preds = %81, %82
  %.0.i = phi i8 [ 0, %81 ], [ %84, %82 ]
  %indvars.iv.next31 = add nsw i64 %indvars.iv30, 1
  %85 = getelementptr inbounds i8, ptr %1, i64 %indvars.iv30
  store i8 %.0.i, ptr %85, align 1, !tbaa !31
  %86 = load ptr, ptr %6, align 8, !tbaa !43
  %87 = load ptr, ptr %0, align 8, !tbaa !44
  %88 = ptrtoint ptr %86 to i64
  %89 = ptrtoint ptr %87 to i64
  %90 = sub i64 %88, %89
  %91 = trunc i64 %90 to i32
  %92 = icmp sgt i32 %91, 0
  %93 = icmp slt i64 %indvars.iv.next31, %8
  %94 = select i1 %92, i1 %93, i1 false
  br i1 %94, label %.lr.ph17, label %.loopexit4.loopexit, !llvm.loop !79

95:                                               ; preds = %bytestream2_get_be16.exit
  %96 = and i32 %66, %7
  %spec.store.select = tail call i32 @llvm.umax.i32(i32 %96, i32 1)
  %97 = icmp slt i32 %.15513, %spec.store.select
  br i1 %97, label %.thread, label %98

98:                                               ; preds = %95
  %99 = lshr i32 %66, %3
  %100 = add nsw i32 %99, %4
  %101 = shl nsw i32 %100, 1
  %102 = add nsw i32 %101, %.15513
  %103 = icmp sgt i32 %102, %2
  br i1 %103, label %.thread, label %.preheader

.preheader:                                       ; preds = %98
  %104 = icmp sgt i32 %100, 0
  br i1 %104, label %.lr.ph.preheader, label %.loopexit

.lr.ph.preheader:                                 ; preds = %.preheader
  %105 = zext nneg i32 %.15513 to i64
  %106 = zext nneg i32 %spec.store.select to i64
  %smax = tail call i32 @llvm.smax.i32(i32 %101, i32 1)
  br label %.lr.ph

.lr.ph:                                           ; preds = %.lr.ph.preheader, %.lr.ph
  %indvars.iv = phi i64 [ %105, %.lr.ph.preheader ], [ %indvars.iv.next, %.lr.ph ]
  %.012 = phi i32 [ 0, %.lr.ph.preheader ], [ %111, %.lr.ph ]
  %107 = sub nsw i64 %indvars.iv, %106
  %108 = getelementptr inbounds i8, ptr %1, i64 %107
  %109 = load i8, ptr %108, align 1, !tbaa !31
  %110 = getelementptr inbounds nuw i8, ptr %1, i64 %indvars.iv
  store i8 %109, ptr %110, align 1, !tbaa !31
  %indvars.iv.next = add nuw nsw i64 %indvars.iv, 1
  %111 = add nuw nsw i32 %.012, 1
  %exitcond.not = icmp eq i32 %111, %smax
  br i1 %exitcond.not, label %.loopexit.loopexit, label %.lr.ph, !llvm.loop !80

.loopexit.loopexit:                               ; preds = %.lr.ph
  %112 = trunc nsw i64 %indvars.iv.next to i32
  br label %.loopexit

.loopexit:                                        ; preds = %.loopexit.loopexit, %.preheader, %29, %bytestream2_get_byte.exit59
  %.3 = phi i32 [ %30, %bytestream2_get_byte.exit59 ], [ %.15513, %29 ], [ %.15513, %.preheader ], [ %112, %.loopexit.loopexit ]
  %113 = shl nuw nsw i32 %.052.in14, 1
  %114 = and i32 %113, 131070
  %115 = add nuw nsw i32 %.05115, 1
  %exitcond26 = icmp eq i32 %115, 16
  br i1 %exitcond26, label %.loopexit4, label %bytestream2_get_be16.exit64, !llvm.loop !81

.loopexit4.loopexit:                              ; preds = %bytestream2_get_byte.exit
  %116 = trunc nsw i64 %indvars.iv.next31 to i32
  br label %.thread

.loopexit4:                                       ; preds = %.loopexit
  %117 = load ptr, ptr %6, align 8, !tbaa !43
  %118 = load ptr, ptr %0, align 8, !tbaa !44
  %119 = ptrtoint ptr %117 to i64
  %120 = ptrtoint ptr %118 to i64
  %121 = sub i64 %119, %120
  %122 = trunc i64 %121 to i32
  %123 = icmp sgt i32 %122, 0
  %124 = icmp slt i32 %.3, %2
  %125 = select i1 %123, i1 %124, i1 false
  br i1 %125, label %.lr.ph63, label %.thread, !llvm.loop !82

.thread:                                          ; preds = %.loopexit4, %98, %95, %5, %.loopexit4.loopexit, %.preheader3
  %.2 = phi i32 [ %116, %.loopexit4.loopexit ], [ %.15513, %.preheader3 ], [ -1094995529, %5 ], [ -1094995529, %95 ], [ -1094995529, %98 ], [ -1094995529, %.loopexit4 ]
  ret i32 %.2
}